target datalayout = "e-m:e-p270:32:32-p271:32:32-p272:64:64-i64:64-i128:128-f80:128-n8:16:32:64-S128"
target triple = "x86_64-pc-linux-gnu"

%"class.std::__cxx11::basic_string" = type { %"struct.std::__cxx11::basic_string<char>::_Alloc_hider", i64, %union.anon }
%"struct.std::__cxx11::basic_string<char>::_Alloc_hider" = type { ptr }
%union.anon = type { i64, [8 x i8] }
%"struct.Luau::CodeGen::AssemblyOptions" = type { i32, %"struct.Luau::CodeGen::CompilationOptions", i8, i8, i8, i8, i8, i32, i32, i32, i32, ptr, ptr }
%"struct.Luau::CodeGen::CompilationOptions" = type { i32, %"struct.Luau::CodeGen::HostIrHooks", ptr }
%"struct.Luau::CodeGen::HostIrHooks" = type { ptr, ptr, ptr, ptr, ptr, ptr, ptr, ptr, ptr, ptr }
%"class.Luau::CodeGen::X64::AssemblyBuilderX64" = type <{ %"class.std::vector", %"class.std::vector", %"class.std::__cxx11::basic_string", i8, [3 x i8], i32, i32, [4 x i8], %"class.std::vector.3", %"class.std::vector.8", %"class.Luau::DenseHashMap", %"class.Luau::DenseHashMap.13", i8, [7 x i8], i64, ptr, ptr, i32, [4 x i8] }>
%"class.std::vector" = type { %"struct.std::_Vector_base" }
%"struct.std::_Vector_base" = type { %"struct.std::_Vector_base<unsigned char, std::allocator<unsigned char>>::_Vector_impl" }
%"struct.std::_Vector_base<unsigned char, std::allocator<unsigned char>>::_Vector_impl" = type { %"struct.std::_Vector_base<unsigned char, std::allocator<unsigned char>>::_Vector_impl_data" }
%"struct.std::_Vector_base<unsigned char, std::allocator<unsigned char>>::_Vector_impl_data" = type { ptr, ptr, ptr }
%"class.std::vector.3" = type { %"struct.std::_Vector_base.4" }
%"struct.std::_Vector_base.4" = type { %"struct.std::_Vector_base<Luau::CodeGen::Label, std::allocator<Luau::CodeGen::Label>>::_Vector_impl" }
%"struct.std::_Vector_base<Luau::CodeGen::Label, std::allocator<Luau::CodeGen::Label>>::_Vector_impl" = type { %"struct.std::_Vector_base<Luau::CodeGen::Label, std::allocator<Luau::CodeGen::Label>>::_Vector_impl_data" }
%"struct.std::_Vector_base<Luau::CodeGen::Label, std::allocator<Luau::CodeGen::Label>>::_Vector_impl_data" = type { ptr, ptr, ptr }
%"class.std::vector.8" = type { %"struct.std::_Vector_base.9" }
%"struct.std::_Vector_base.9" = type { %"struct.std::_Vector_base<unsigned int, std::allocator<unsigned int>>::_Vector_impl" }
%"struct.std::_Vector_base<unsigned int, std::allocator<unsigned int>>::_Vector_impl" = type { %"struct.std::_Vector_base<unsigned int, std::allocator<unsigned int>>::_Vector_impl_data" }
%"struct.std::_Vector_base<unsigned int, std::allocator<unsigned int>>::_Vector_impl_data" = type { ptr, ptr, ptr }
%"class.Luau::DenseHashMap" = type { %"class.Luau::detail::DenseHashTable" }
%"class.Luau::detail::DenseHashTable" = type <{ ptr, i64, i64, i32, %"struct.std::hash", %"struct.std::equal_to", [2 x i8] }>
%"struct.std::hash" = type { i8 }
%"struct.std::equal_to" = type { i8 }
%"class.Luau::DenseHashMap.13" = type { %"class.Luau::detail::DenseHashTable.14" }
%"class.Luau::detail::DenseHashTable.14" = type <{ ptr, i64, i64, i64, %"struct.std::hash.15", %"struct.std::equal_to.17", [6 x i8] }>
%"struct.std::hash.15" = type { i8 }
%"struct.std::equal_to.17" = type { i8 }
%"class.Luau::CodeGen::A64::AssemblyBuilderA64" = type { %"class.std::vector", %"class.std::vector.8", %"class.std::__cxx11::basic_string", i8, i32, i32, %"class.std::vector.20", %"class.std::vector.8", i8, i8, i64, ptr, ptr }
%"class.std::vector.20" = type { %"struct.std::_Vector_base.21" }
%"struct.std::_Vector_base.21" = type { %"struct.std::_Vector_base<Luau::CodeGen::A64::AssemblyBuilderA64::Patch, std::allocator<Luau::CodeGen::A64::AssemblyBuilderA64::Patch>>::_Vector_impl" }
%"struct.std::_Vector_base<Luau::CodeGen::A64::AssemblyBuilderA64::Patch, std::allocator<Luau::CodeGen::A64::AssemblyBuilderA64::Patch>>::_Vector_impl" = type { %"struct.std::_Vector_base<Luau::CodeGen::A64::AssemblyBuilderA64::Patch, std::allocator<Luau::CodeGen::A64::AssemblyBuilderA64::Patch>>::_Vector_impl_data" }
%"struct.std::_Vector_base<Luau::CodeGen::A64::AssemblyBuilderA64::Patch, std::allocator<Luau::CodeGen::A64::AssemblyBuilderA64::Patch>>::_Vector_impl_data" = type { ptr, ptr, ptr }

; Function Attrs: mustprogress uwtable
define dso_local void @_ZN4Luau7CodeGen11getAssemblyB5cxx11EP9lua_StateiNS0_15AssemblyOptionsEPNS0_13LoweringStatsE(ptr dead_on_unwind noalias writable sret(%"class.std::__cxx11::basic_string") align 8 %0, ptr noundef %1, i32 noundef %2, ptr noundef byval(%"struct.Luau::CodeGen::AssemblyOptions") align 8 %3, ptr noundef %4) #0 personality ptr @__gxx_personality_v0 {
  %6 = alloca ptr, align 8
  %7 = alloca ptr, align 8
  %8 = alloca i32, align 4
  %9 = alloca ptr, align 8
  %10 = alloca ptr, align 8
  %11 = alloca %"class.Luau::CodeGen::X64::AssemblyBuilderX64", align 8
  %12 = alloca %"struct.Luau::CodeGen::AssemblyOptions", align 8
  %13 = alloca ptr, align 8
  %14 = alloca i32, align 4
  %15 = alloca %"class.Luau::CodeGen::A64::AssemblyBuilderA64", align 8
  %16 = alloca %"struct.Luau::CodeGen::AssemblyOptions", align 8
  %17 = alloca %"class.Luau::CodeGen::A64::AssemblyBuilderA64", align 8
  %18 = alloca %"struct.Luau::CodeGen::AssemblyOptions", align 8
  %19 = alloca %"class.Luau::CodeGen::X64::AssemblyBuilderX64", align 8
  %20 = alloca %"struct.Luau::CodeGen::AssemblyOptions", align 8
  %21 = alloca %"class.Luau::CodeGen::X64::AssemblyBuilderX64", align 8
  %22 = alloca %"struct.Luau::CodeGen::AssemblyOptions", align 8
  store ptr %0, ptr %6, align 8
  store ptr %1, ptr %7, align 8
  store i32 %2, ptr %8, align 4
  store ptr %4, ptr %9, align 8
  %23 = load ptr, ptr %7, align 8
  %24 = load i32, ptr %8, align 4
  %25 = call noundef ptr @_Z13luaA_toobjectP9lua_Statei(ptr noundef %23, i32 noundef %24)
  store ptr %25, ptr %10, align 8
  %26 = getelementptr inbounds %"struct.Luau::CodeGen::AssemblyOptions", ptr %3, i32 0, i32 0
  %27 = load i32, ptr %26, align 8
  switch i32 %27, label %83 [
    i32 0, label %28
    i32 1, label %39
    i32 2, label %50
    i32 3, label %61
    i32 4, label %72
  ]

28:                                               ; preds = %5
  %29 = getelementptr inbounds %"struct.Luau::CodeGen::AssemblyOptions", ptr %3, i32 0, i32 3
  %30 = load i8, ptr %29, align 1
  %31 = trunc i8 %30 to i1
  call void @_ZN4Luau7CodeGen3X6418AssemblyBuilderX64C1Eb(ptr noundef nonnull align 8 dereferenceable(252) %11, i1 noundef zeroext %31)
  %32 = load ptr, ptr %10, align 8
  call void @llvm.memcpy.p0.p0.i64(ptr align 8 %12, ptr align 8 %3, i64 144, i1 false)
  %33 = load ptr, ptr %9, align 8
  invoke void @_ZN4Luau7CodeGenL15getAssemblyImplINS0_3X6418AssemblyBuilderX64EEENSt7__cxx1112basic_stringIcSt11char_traitsIcESaIcEEERT_PK10lua_TValueNS0_15AssemblyOptionsEPNS0_13LoweringStatsE(ptr dead_on_unwind writable sret(%"class.std::__cxx11::basic_string") align 8 %0, ptr noundef nonnull align 8 dereferenceable(252) %11, ptr noundef %32, ptr noundef byval(%"struct.Luau::CodeGen::AssemblyOptions") align 8 %12, ptr noundef %33)
          to label %34 unwind label %35

34:                                               ; preds = %28
  call void @_ZN4Luau7CodeGen3X6418AssemblyBuilderX64D1Ev(ptr noundef nonnull align 8 dereferenceable(252) %11) #10
  br label %84

35:                                               ; preds = %28
  %36 = landingpad { ptr, i32 }
          cleanup
  %37 = extractvalue { ptr, i32 } %36, 0
  store ptr %37, ptr %13, align 8
  %38 = extractvalue { ptr, i32 } %36, 1
  store i32 %38, ptr %14, align 4
  call void @_ZN4Luau7CodeGen3X6418AssemblyBuilderX64D1Ev(ptr noundef nonnull align 8 dereferenceable(252) %11) #10
  br label %85

39:                                               ; preds = %5
  %40 = getelementptr inbounds %"struct.Luau::CodeGen::AssemblyOptions", ptr %3, i32 0, i32 3
  %41 = load i8, ptr %40, align 1
  %42 = trunc i8 %41 to i1
  call void @_ZN4Luau7CodeGen3A6418AssemblyBuilderA64C1Ebj(ptr noundef nonnull align 8 dereferenceable(176) %15, i1 noundef zeroext %42, i32 noundef 1)
  %43 = load ptr, ptr %10, align 8
  call void @llvm.memcpy.p0.p0.i64(ptr align 8 %16, ptr align 8 %3, i64 144, i1 false)
  %44 = load ptr, ptr %9, align 8
  invoke void @_ZN4Luau7CodeGenL15getAssemblyImplINS0_3A6418AssemblyBuilderA64EEENSt7__cxx1112basic_stringIcSt11char_traitsIcESaIcEEERT_PK10lua_TValueNS0_15AssemblyOptionsEPNS0_13LoweringStatsE(ptr dead_on_unwind writable sret(%"class.std::__cxx11::basic_string") align 8 %0, ptr noundef nonnull align 8 dereferenceable(176) %15, ptr noundef %43, ptr noundef byval(%"struct.Luau::CodeGen::AssemblyOptions") align 8 %16, ptr noundef %44)
          to label %45 unwind label %46

45:                                               ; preds = %39
  call void @_ZN4Luau7CodeGen3A6418AssemblyBuilderA64D1Ev(ptr noundef nonnull align 8 dereferenceable(176) %15) #10
  br label %84

46:                                               ; preds = %39
  %47 = landingpad { ptr, i32 }
          cleanup
  %48 = extractvalue { ptr, i32 } %47, 0
  store ptr %48, ptr %13, align 8
  %49 = extractvalue { ptr, i32 } %47, 1
  store i32 %49, ptr %14, align 4
  call void @_ZN4Luau7CodeGen3A6418AssemblyBuilderA64D1Ev(ptr noundef nonnull align 8 dereferenceable(176) %15) #10
  br label %85

50:                                               ; preds = %5
  %51 = getelementptr inbounds %"struct.Luau::CodeGen::AssemblyOptions", ptr %3, i32 0, i32 3
  %52 = load i8, ptr %51, align 1
  %53 = trunc i8 %52 to i1
  call void @_ZN4Luau7CodeGen3A6418AssemblyBuilderA64C1Ebj(ptr noundef nonnull align 8 dereferenceable(176) %17, i1 noundef zeroext %53, i32 noundef 0)
  %54 = load ptr, ptr %10, align 8
  call void @llvm.memcpy.p0.p0.i64(ptr align 8 %18, ptr align 8 %3, i64 144, i1 false)
  %55 = load ptr, ptr %9, align 8
  invoke void @_ZN4Luau7CodeGenL15getAssemblyImplINS0_3A6418AssemblyBuilderA64EEENSt7__cxx1112basic_stringIcSt11char_traitsIcESaIcEEERT_PK10lua_TValueNS0_15AssemblyOptionsEPNS0_13LoweringStatsE(ptr dead_on_unwind writable sret(%"class.std::__cxx11::basic_string") align 8 %0, ptr noundef nonnull align 8 dereferenceable(176) %17, ptr noundef %54, ptr noundef byval(%"struct.Luau::CodeGen::AssemblyOptions") align 8 %18, ptr noundef %55)
          to label %56 unwind label %57

56:                                               ; preds = %50
  call void @_ZN4Luau7CodeGen3A6418AssemblyBuilderA64D1Ev(ptr noundef nonnull align 8 dereferenceable(176) %17) #10
  br label %84

57:                                               ; preds = %50
  %58 = landingpad { ptr, i32 }
          cleanup
  %59 = extractvalue { ptr, i32 } %58, 0
  store ptr %59, ptr %13, align 8
  %60 = extractvalue { ptr, i32 } %58, 1
  store i32 %60, ptr %14, align 4
  call void @_ZN4Luau7CodeGen3A6418AssemblyBuilderA64D1Ev(ptr noundef nonnull align 8 dereferenceable(176) %17) #10
  br label %85

61:                                               ; preds = %5
  %62 = getelementptr inbounds %"struct.Luau::CodeGen::AssemblyOptions", ptr %3, i32 0, i32 3
  %63 = load i8, ptr %62, align 1
  %64 = trunc i8 %63 to i1
  call void @_ZN4Luau7CodeGen3X6418AssemblyBuilderX64C1EbNS1_6ABIX64E(ptr noundef nonnull align 8 dereferenceable(252) %19, i1 noundef zeroext %64, i32 noundef 0)
  %65 = load ptr, ptr %10, align 8
  call void @llvm.memcpy.p0.p0.i64(ptr align 8 %20, ptr align 8 %3, i64 144, i1 false)
  %66 = load ptr, ptr %9, align 8
  invoke void @_ZN4Luau7CodeGenL15getAssemblyImplINS0_3X6418AssemblyBuilderX64EEENSt7__cxx1112basic_stringIcSt11char_traitsIcESaIcEEERT_PK10lua_TValueNS0_15AssemblyOptionsEPNS0_13LoweringStatsE(ptr dead_on_unwind writable sret(%"class.std::__cxx11::basic_string") align 8 %0, ptr noundef nonnull align 8 dereferenceable(252) %19, ptr noundef %65, ptr noundef byval(%"struct.Luau::CodeGen::AssemblyOptions") align 8 %20, ptr noundef %66)
          to label %67 unwind label %68

67:                                               ; preds = %61
  call void @_ZN4Luau7CodeGen3X6418AssemblyBuilderX64D1Ev(ptr noundef nonnull align 8 dereferenceable(252) %19) #10
  br label %84

68:                                               ; preds = %61
  %69 = landingpad { ptr, i32 }
          cleanup
  %70 = extractvalue { ptr, i32 } %69, 0
  store ptr %70, ptr %13, align 8
  %71 = extractvalue { ptr, i32 } %69, 1
  store i32 %71, ptr %14, align 4
  call void @_ZN4Luau7CodeGen3X6418AssemblyBuilderX64D1Ev(ptr noundef nonnull align 8 dereferenceable(252) %19) #10
  br label %85

72:                                               ; preds = %5
  %73 = getelementptr inbounds %"struct.Luau::CodeGen::AssemblyOptions", ptr %3, i32 0, i32 3
  %74 = load i8, ptr %73, align 1
  %75 = trunc i8 %74 to i1
  call void @_ZN4Luau7CodeGen3X6418AssemblyBuilderX64C1EbNS1_6ABIX64E(ptr noundef nonnull align 8 dereferenceable(252) %21, i1 noundef zeroext %75, i32 noundef 1)
  %76 = load ptr, ptr %10, align 8
  call void @llvm.memcpy.p0.p0.i64(ptr align 8 %22, ptr align 8 %3, i64 144, i1 false)
  %77 = load ptr, ptr %9, align 8
  invoke void @_ZN4Luau7CodeGenL15getAssemblyImplINS0_3X6418AssemblyBuilderX64EEENSt7__cxx1112basic_stringIcSt11char_traitsIcESaIcEEERT_PK10lua_TValueNS0_15AssemblyOptionsEPNS0_13LoweringStatsE(ptr dead_on_unwind writable sret(%"class.std::__cxx11::basic_string") align 8 %0, ptr noundef nonnull align 8 dereferenceable(252) %21, ptr noundef %76, ptr noundef byval(%"struct.Luau::CodeGen::AssemblyOptions") align 8 %22, ptr noundef %77)
          to label %78 unwind label %79

78:                                               ; preds = %72
  call void @_ZN4Luau7CodeGen3X6418AssemblyBuilderX64D1Ev(ptr noundef nonnull align 8 dereferenceable(252) %21) #10
  br label %84

79:                                               ; preds = %72
  %80 = landingpad { ptr, i32 }
          cleanup
  %81 = extractvalue { ptr, i32 } %80, 0
  store ptr %81, ptr %13, align 8
  %82 = extractvalue { ptr, i32 } %80, 1
  store i32 %82, ptr %14, align 4
  call void @_ZN4Luau7CodeGen3X6418AssemblyBuilderX64D1Ev(ptr noundef nonnull align 8 dereferenceable(252) %21) #10
  br label %85

83:                                               ; preds = %5
  call void @_ZNSt7__cxx1112basic_stringIcSt11char_traitsIcESaIcEEC1Ev(ptr noundef nonnull align 8 dereferenceable(32) %0) #10
  br label %84

84:                                               ; preds = %83, %78, %67, %56, %45, %34
  ret void

85:                                               ; preds = %79, %68, %57, %46, %35
  %86 = load ptr, ptr %13, align 8
  %87 = load i32, ptr %14, align 4
  %88 = insertvalue { ptr, i32 } poison, ptr %86, 0
  %89 = insertvalue { ptr, i32 } %88, i32 %87, 1
  resume { ptr, i32 } %89
}