; Function Attrs: mustprogress uwtable
define dso_local void @_ZN4Luau7CodeGen11getAssemblyB5cxx11EP9lua_StateiNS0_15AssemblyOptionsEPNS0_13LoweringStatsE(ptr dead_on_unwind noalias writable sret(%"class.std::__cxx11::basic_string") align 8 %0, ptr noundef %1, i32 noundef %2, ptr nocapture noundef readonly byval(%"struct.Luau::CodeGen::AssemblyOptions") align 8 %3, ptr noundef %4) local_unnamed_addr #2 personality ptr @__gxx_personality_v0 {
  %6 = alloca %"class.Luau::CodeGen::X64::AssemblyBuilderX64", align 8
  %7 = alloca %"class.Luau::CodeGen::A64::AssemblyBuilderA64", align 8
  %8 = alloca %"class.Luau::CodeGen::A64::AssemblyBuilderA64", align 8
  %9 = alloca %"class.Luau::CodeGen::X64::AssemblyBuilderX64", align 8
  %10 = alloca %"class.Luau::CodeGen::X64::AssemblyBuilderX64", align 8
  %11 = tail call noundef ptr @_Z13luaA_toobjectP9lua_Statei(ptr noundef %1, i32 noundef %2)
  %12 = load i32, ptr %3, align 8
  switch i32 %12, label %53 [
    i32 0, label %13
    i32 1, label %21
    i32 2, label %29
    i32 3, label %37
    i32 4, label %45
  ]

13:                                               ; preds = %5
  %14 = getelementptr inbounds i8, ptr %3, i64 105
  %15 = load i8, ptr %14, align 1
  %16 = trunc i8 %15 to i1
  call void @_ZN4Luau7CodeGen3X6418AssemblyBuilderX64C1Eb(ptr noundef nonnull align 8 dereferenceable(252) %6, i1 noundef zeroext %16)
  %.val = load ptr, ptr %11, align 8
  %17 = getelementptr i8, ptr %.val, i64 24
  %.val.val = load ptr, ptr %17, align 8
  invoke fastcc void @_ZN4Luau7CodeGenL15getAssemblyImplINS0_3X6418AssemblyBuilderX64EEENSt7__cxx1112basic_stringIcSt11char_traitsIcESaIcEEERT_PK10lua_TValueNS0_15AssemblyOptionsEPNS0_13LoweringStatsE(ptr dead_on_unwind noalias writable align 8 %0, ptr noundef nonnull align 8 dereferenceable(252) %6, ptr %.val.val, ptr noundef nonnull byval(%"struct.Luau::CodeGen::AssemblyOptions") align 8 %3, ptr noundef %4)
          to label %18 unwind label %19

18:                                               ; preds = %13
  call void @_ZN4Luau7CodeGen3X6418AssemblyBuilderX64D1Ev(ptr noundef nonnull align 8 dereferenceable(252) %6) #14
  br label %54

19:                                               ; preds = %13
  %20 = landingpad { ptr, i32 }
          cleanup
  call void @_ZN4Luau7CodeGen3X6418AssemblyBuilderX64D1Ev(ptr noundef nonnull align 8 dereferenceable(252) %6) #14
  br label %55

21:                                               ; preds = %5
  %22 = getelementptr inbounds i8, ptr %3, i64 105
  %23 = load i8, ptr %22, align 1
  %24 = trunc i8 %23 to i1
  call void @_ZN4Luau7CodeGen3A6418AssemblyBuilderA64C1Ebj(ptr noundef nonnull align 8 dereferenceable(176) %7, i1 noundef zeroext %24, i32 noundef 1)
  %.val17 = load ptr, ptr %11, align 8
  %25 = getelementptr i8, ptr %.val17, i64 24
  %.val17.val = load ptr, ptr %25, align 8
  invoke fastcc void @_ZN4Luau7CodeGenL15getAssemblyImplINS0_3A6418AssemblyBuilderA64EEENSt7__cxx1112basic_stringIcSt11char_traitsIcESaIcEEERT_PK10lua_TValueNS0_15AssemblyOptionsEPNS0_13LoweringStatsE(ptr dead_on_unwind noalias writable align 8 %0, ptr noundef nonnull align 8 dereferenceable(176) %7, ptr %.val17.val, ptr noundef nonnull byval(%"struct.Luau::CodeGen::AssemblyOptions") align 8 %3, ptr noundef %4)
          to label %26 unwind label %27

26:                                               ; preds = %21
  call void @_ZN4Luau7CodeGen3A6418AssemblyBuilderA64D1Ev(ptr noundef nonnull align 8 dereferenceable(176) %7) #14
  br label %54

27:                                               ; preds = %21
  %28 = landingpad { ptr, i32 }
          cleanup
  call void @_ZN4Luau7CodeGen3A6418AssemblyBuilderA64D1Ev(ptr noundef nonnull align 8 dereferenceable(176) %7) #14
  br label %55

29:                                               ; preds = %5
  %30 = getelementptr inbounds i8, ptr %3, i64 105
  %31 = load i8, ptr %30, align 1
  %32 = trunc i8 %31 to i1
  call void @_ZN4Luau7CodeGen3A6418AssemblyBuilderA64C1Ebj(ptr noundef nonnull align 8 dereferenceable(176) %8, i1 noundef zeroext %32, i32 noundef 0)
  %.val18 = load ptr, ptr %11, align 8
  %33 = getelementptr i8, ptr %.val18, i64 24
  %.val18.val = load ptr, ptr %33, align 8
  invoke fastcc void @_ZN4Luau7CodeGenL15getAssemblyImplINS0_3A6418AssemblyBuilderA64EEENSt7__cxx1112basic_stringIcSt11char_traitsIcESaIcEEERT_PK10lua_TValueNS0_15AssemblyOptionsEPNS0_13LoweringStatsE(ptr dead_on_unwind noalias writable align 8 %0, ptr noundef nonnull align 8 dereferenceable(176) %8, ptr %.val18.val, ptr noundef nonnull byval(%"struct.Luau::CodeGen::AssemblyOptions") align 8 %3, ptr noundef %4)
          to label %34 unwind label %35

34:                                               ; preds = %29
  call void @_ZN4Luau7CodeGen3A6418AssemblyBuilderA64D1Ev(ptr noundef nonnull align 8 dereferenceable(176) %8) #14
  br label %54

35:                                               ; preds = %29
  %36 = landingpad { ptr, i32 }
          cleanup
  call void @_ZN4Luau7CodeGen3A6418AssemblyBuilderA64D1Ev(ptr noundef nonnull align 8 dereferenceable(176) %8) #14
  br label %55

37:                                               ; preds = %5
  %38 = getelementptr inbounds i8, ptr %3, i64 105
  %39 = load i8, ptr %38, align 1
  %40 = trunc i8 %39 to i1
  call void @_ZN4Luau7CodeGen3X6418AssemblyBuilderX64C1EbNS1_6ABIX64E(ptr noundef nonnull align 8 dereferenceable(252) %9, i1 noundef zeroext %40, i32 noundef 0)
  %.val15 = load ptr, ptr %11, align 8
  %41 = getelementptr i8, ptr %.val15, i64 24
  %.val15.val = load ptr, ptr %41, align 8
  invoke fastcc void @_ZN4Luau7CodeGenL15getAssemblyImplINS0_3X6418AssemblyBuilderX64EEENSt7__cxx1112basic_stringIcSt11char_traitsIcESaIcEEERT_PK10lua_TValueNS0_15AssemblyOptionsEPNS0_13LoweringStatsE(ptr dead_on_unwind noalias writable align 8 %0, ptr noundef nonnull align 8 dereferenceable(252) %9, ptr %.val15.val, ptr noundef nonnull byval(%"struct.Luau::CodeGen::AssemblyOptions") align 8 %3, ptr noundef %4)
          to label %42 unwind label %43

42:                                               ; preds = %37
  call void @_ZN4Luau7CodeGen3X6418AssemblyBuilderX64D1Ev(ptr noundef nonnull align 8 dereferenceable(252) %9) #14
  br label %54

43:                                               ; preds = %37
  %44 = landingpad { ptr, i32 }
          cleanup
  call void @_ZN4Luau7CodeGen3X6418AssemblyBuilderX64D1Ev(ptr noundef nonnull align 8 dereferenceable(252) %9) #14
  br label %55

45:                                               ; preds = %5
  %46 = getelementptr inbounds i8, ptr %3, i64 105
  %47 = load i8, ptr %46, align 1
  %48 = trunc i8 %47 to i1
  call void @_ZN4Luau7CodeGen3X6418AssemblyBuilderX64C1EbNS1_6ABIX64E(ptr noundef nonnull align 8 dereferenceable(252) %10, i1 noundef zeroext %48, i32 noundef 1)
  %.val16 = load ptr, ptr %11, align 8
  %49 = getelementptr i8, ptr %.val16, i64 24
  %.val16.val = load ptr, ptr %49, align 8
  invoke fastcc void @_ZN4Luau7CodeGenL15getAssemblyImplINS0_3X6418AssemblyBuilderX64EEENSt7__cxx1112basic_stringIcSt11char_traitsIcESaIcEEERT_PK10lua_TValueNS0_15AssemblyOptionsEPNS0_13LoweringStatsE(ptr dead_on_unwind noalias writable align 8 %0, ptr noundef nonnull align 8 dereferenceable(252) %10, ptr %.val16.val, ptr noundef nonnull byval(%"struct.Luau::CodeGen::AssemblyOptions") align 8 %3, ptr noundef %4)
          to label %50 unwind label %51

50:                                               ; preds = %45
  call void @_ZN4Luau7CodeGen3X6418AssemblyBuilderX64D1Ev(ptr noundef nonnull align 8 dereferenceable(252) %10) #14
  br label %54

51:                                               ; preds = %45
  %52 = landingpad { ptr, i32 }
          cleanup
  call void @_ZN4Luau7CodeGen3X6418AssemblyBuilderX64D1Ev(ptr noundef nonnull align 8 dereferenceable(252) %10) #14
  br label %55

53:                                               ; preds = %5
  tail call void @_ZNSt7__cxx1112basic_stringIcSt11char_traitsIcESaIcEEC1Ev(ptr noundef nonnull align 8 dereferenceable(32) %0) #14
  br label %54

54:                                               ; preds = %53, %50, %42, %34, %26, %18
  ret void

55:                                               ; preds = %51, %43, %35, %27, %19
  %.pn = phi { ptr, i32 } [ %52, %51 ], [ %44, %43 ], [ %36, %35 ], [ %28, %27 ], [ %20, %19 ]
  resume { ptr, i32 } %.pn
}